; Function Attrs: inlinehint mustprogress optsize uwtable
define internal noundef ptr @"_ZZN8nanobind6detail11func_createILb0ELb1EZL30nanobind_init_test_holders_extRNS_7module_EE4$_35St10shared_ptrIZL30nanobind_init_test_holders_extS3_E4BaseEJETpTnmJEJNS_5scopeENS_4nameEEEEP7_objectOT1_PFT2_DpT3_ESt16integer_sequenceImJXspT4_EEEDpRKT5_ENUlPvPSB_PhNS_9rv_policyEPNS0_12cleanup_listEE_8__invokeESP_SQ_SR_SS_SU_"(ptr readnone captures(none) %0, ptr readnone captures(none) %1, ptr readnone captures(none) %2, i32 %3, ptr noundef %4) #8 align 2 personality ptr @__gxx_personality_v0 {
  %6 = alloca %"class.std::shared_ptr.486", align 8
  call void @llvm.lifetime.start.p0(i64 16, ptr nonnull %6) #26
  tail call void @llvm.experimental.noalias.scope.decl(metadata !410)
  %7 = tail call noalias noundef nonnull dereferenceable(1) ptr @_Znwm(i64 noundef 1) #29, !noalias !410
  store ptr %7, ptr %6, align 8, !tbaa !413, !alias.scope !410
  %8 = invoke noalias noundef nonnull dereferenceable(24) ptr @_Znwm(i64 noundef 24) #29
          to label %"_ZZL30nanobind_init_test_holders_extRN8nanobind7module_EENK4$_35clEv.exit" unwind label %9, !noalias !410

9:                                                ; preds = %5
  %10 = landingpad { ptr, i32 }
          catch ptr null
  %11 = extractvalue { ptr, i32 } %10, 0
  %12 = tail call ptr @__cxa_begin_catch(ptr %11) #26, !noalias !410
  tail call void @_ZdlPvm(ptr noundef nonnull %7, i64 noundef 1) #30, !noalias !410
  invoke void @__cxa_rethrow() #31
          to label %19 unwind label %13, !noalias !410

13:                                               ; preds = %9
  %14 = landingpad { ptr, i32 }
          cleanup
  invoke void @__cxa_end_catch()
          to label %15 unwind label %16, !noalias !410

15:                                               ; preds = %13
  resume { ptr, i32 } %14

16:                                               ; preds = %13
  %17 = landingpad { ptr, i32 }
          catch ptr null
  %18 = extractvalue { ptr, i32 } %17, 0
  tail call void @__clang_call_terminate(ptr %18) #28, !noalias !410
  unreachable

19:                                               ; preds = %9
  unreachable

"_ZZL30nanobind_init_test_holders_extRN8nanobind7module_EENK4$_35clEv.exit": ; preds = %5
  %20 = getelementptr inbounds nuw i8, ptr %6, i64 8
  %21 = getelementptr inbounds nuw i8, ptr %8, i64 8
  store i32 1, ptr %21, align 8, !tbaa !123, !noalias !410
  %22 = getelementptr inbounds nuw i8, ptr %8, i64 12
  store i32 1, ptr %22, align 4, !tbaa !125, !noalias !410
  store ptr getelementptr inbounds nuw inrange(-16, 40) (i8, ptr @_ZTVSt15_Sp_counted_ptrIPZL30nanobind_init_test_holders_extRN8nanobind7module_EE8SubclassLN9__gnu_cxx12_Lock_policyE2EE, i64 16), ptr %8, align 8, !tbaa !116, !noalias !410
  %23 = getelementptr inbounds nuw i8, ptr %8, i64 16
  store ptr %7, ptr %23, align 8, !tbaa !415, !noalias !410
  store ptr %8, ptr %20, align 8, !tbaa !126, !alias.scope !410
  %24 = call fastcc ptr @_ZN8nanobind6detail11type_casterISt10shared_ptrIZL30nanobind_init_test_holders_extRNS_7module_EE4BaseEiE8from_cppERKS6_NS_9rv_policyEPNS0_12cleanup_listE(ptr noundef nonnull align 8 dereferenceable(16) %6, ptr noundef %4) #27
  call void @_ZNSt14__shared_countILN9__gnu_cxx12_Lock_policyE2EED2Ev(ptr noundef nonnull align 8 dereferenceable(8) %20) #27
  call void @llvm.lifetime.end.p0(i64 16, ptr nonnull %6) #26
  ret ptr %24
}